; Function Attrs: nounwind uwtable
define range(i32 0, 2) i32 @ossl_ed25519_sign(ptr noundef %0, ptr noundef %1, i64 noundef %2, ptr noundef %3, ptr noundef %4, i8 noundef zeroext %5, i8 noundef zeroext %6, i8 noundef zeroext %7, ptr noundef %8, i64 noundef %9, ptr noundef %10, ptr noundef %11) local_unnamed_addr #0 {
  %13 = alloca [33 x i8], align 16
  %14 = alloca [2 x i8], align 1
  %15 = alloca [64 x i8], align 16
  %16 = alloca [64 x i8], align 16
  %17 = alloca %struct.ge_p3, align 4
  %18 = alloca [64 x i8], align 16
  %19 = alloca i32, align 4
  call void @llvm.lifetime.start.p0(i64 64, ptr nonnull %15) #9
  call void @llvm.lifetime.start.p0(i64 64, ptr nonnull %16) #9
  call void @llvm.lifetime.start.p0(i64 160, ptr nonnull %17) #9
  call void @llvm.lifetime.start.p0(i64 64, ptr nonnull %18) #9
  %20 = tail call ptr @EVP_MD_fetch(ptr noundef %10, ptr noundef nonnull @.str, ptr noundef %11) #9
  %21 = tail call ptr @EVP_MD_CTX_new() #9
  call void @llvm.lifetime.start.p0(i64 4, ptr nonnull %19) #9
  %22 = icmp eq ptr %8, null
  %spec.select = select i1 %22, i64 0, i64 %9
  %23 = icmp ne i8 %7, 0
  %24 = icmp eq i64 %spec.select, 0
  %or.cond = and i1 %23, %24
  br i1 %or.cond, label %75, label %25

25:                                               ; preds = %12
  %26 = icmp eq i8 %5, 0
  %27 = icmp ne i64 %spec.select, 0
  %or.cond3 = and i1 %26, %27
  br i1 %or.cond3, label %75, label %28

28:                                               ; preds = %25
  %29 = icmp eq ptr %20, null
  %30 = icmp eq ptr %21, null
  %or.cond5 = select i1 %29, i1 true, i1 %30
  br i1 %or.cond5, label %75, label %31

31:                                               ; preds = %28
  %32 = tail call i32 @EVP_DigestInit_ex(ptr noundef nonnull %21, ptr noundef nonnull %20, ptr noundef null) #9
  %.not = icmp eq i32 %32, 0
  br i1 %.not, label %75, label %33

33:                                               ; preds = %31
  %34 = tail call i32 @EVP_DigestUpdate(ptr noundef nonnull %21, ptr noundef %4, i64 noundef 32) #9
  %.not51 = icmp eq i32 %34, 0
  br i1 %.not51, label %75, label %35

35:                                               ; preds = %33
  %36 = call i32 @EVP_DigestFinal_ex(ptr noundef nonnull %21, ptr noundef nonnull %15, ptr noundef nonnull %19) #9
  %.not52 = icmp eq i32 %36, 0
  br i1 %.not52, label %75, label %37

37:                                               ; preds = %35
  %38 = load i8, ptr %15, align 16, !tbaa !3
  %39 = and i8 %38, -8
  store i8 %39, ptr %15, align 16, !tbaa !3
  %40 = getelementptr inbounds nuw i8, ptr %15, i64 31
  %41 = load i8, ptr %40, align 1, !tbaa !3
  %42 = and i8 %41, 63
  %43 = or disjoint i8 %42, 64
  store i8 %43, ptr %40, align 1, !tbaa !3
  call void @llvm.lifetime.start.p0(i64 33, ptr nonnull %13) #9
  call void @llvm.memcpy.p0.p0.i64(ptr noundef nonnull align 16 dereferenceable(33) %13, ptr noundef nonnull align 16 dereferenceable(33) @__const.hash_init_with_dom.dom_s, i64 33, i1 false)
  call void @llvm.lifetime.start.p0(i64 2, ptr nonnull %14) #9
  %44 = call i32 @EVP_DigestInit_ex(ptr noundef nonnull %21, ptr noundef nonnull %20, ptr noundef null) #9
  %.not.i = icmp eq i32 %44, 0
  br i1 %.not.i, label %hash_init_with_dom.exit.thread, label %45

45:                                               ; preds = %37
  br i1 %26, label %hash_init_with_dom.exit.thread64, label %46

hash_init_with_dom.exit.thread64:                 ; preds = %45
  call void @llvm.lifetime.end.p0(i64 2, ptr nonnull %14) #9
  call void @llvm.lifetime.end.p0(i64 33, ptr nonnull %13) #9
  br label %56

46:                                               ; preds = %45
  %47 = icmp ugt i64 %spec.select, 255
  br i1 %47, label %hash_init_with_dom.exit.thread, label %48

48:                                               ; preds = %46
  %.not13.i = icmp ne i8 %6, 0
  %49 = zext i1 %.not13.i to i8
  store i8 %49, ptr %14, align 1, !tbaa !3
  %50 = trunc nuw i64 %spec.select to i8
  %51 = getelementptr inbounds nuw i8, ptr %14, i64 1
  store i8 %50, ptr %51, align 1, !tbaa !3
  %52 = call i32 @EVP_DigestUpdate(ptr noundef nonnull %21, ptr noundef nonnull %13, i64 noundef 32) #9
  %.not14.i = icmp eq i32 %52, 0
  br i1 %.not14.i, label %hash_init_with_dom.exit.thread, label %53

53:                                               ; preds = %48
  %54 = call i32 @EVP_DigestUpdate(ptr noundef nonnull %21, ptr noundef nonnull %14, i64 noundef 2) #9
  %.not15.i = icmp eq i32 %54, 0
  br i1 %.not15.i, label %hash_init_with_dom.exit.thread, label %hash_init_with_dom.exit

hash_init_with_dom.exit.thread:                   ; preds = %37, %46, %53, %48
  call void @llvm.lifetime.end.p0(i64 2, ptr nonnull %14) #9
  call void @llvm.lifetime.end.p0(i64 33, ptr nonnull %13) #9
  br label %75

hash_init_with_dom.exit:                          ; preds = %53
  %55 = call i32 @EVP_DigestUpdate(ptr noundef nonnull %21, ptr noundef %8, i64 noundef %spec.select) #9
  %.not16.i.not = icmp eq i32 %55, 0
  call void @llvm.lifetime.end.p0(i64 2, ptr nonnull %14) #9
  call void @llvm.lifetime.end.p0(i64 33, ptr nonnull %13) #9
  br i1 %.not16.i.not, label %75, label %56

56:                                               ; preds = %hash_init_with_dom.exit.thread64, %hash_init_with_dom.exit
  %57 = getelementptr inbounds nuw i8, ptr %15, i64 32
  %58 = call i32 @EVP_DigestUpdate(ptr noundef nonnull %21, ptr noundef nonnull %57, i64 noundef 32) #9
  %.not54 = icmp eq i32 %58, 0
  br i1 %.not54, label %75, label %59

59:                                               ; preds = %56
  %60 = call i32 @EVP_DigestUpdate(ptr noundef nonnull %21, ptr noundef %1, i64 noundef %2) #9
  %.not55 = icmp eq i32 %60, 0
  br i1 %.not55, label %75, label %61

61:                                               ; preds = %59
  %62 = call i32 @EVP_DigestFinal_ex(ptr noundef nonnull %21, ptr noundef nonnull %16, ptr noundef nonnull %19) #9
  %.not56 = icmp eq i32 %62, 0
  br i1 %.not56, label %75, label %63

63:                                               ; preds = %61
  call fastcc void @x25519_sc_reduce(ptr noundef %16)
  call fastcc void @ge_scalarmult_base(ptr noundef %17, ptr noundef %16)
  call fastcc void @ge_p3_tobytes(ptr noundef %0, ptr noundef %17)
  %64 = call fastcc i32 @hash_init_with_dom(ptr noundef %21, ptr noundef %20, i8 noundef zeroext %5, i8 noundef zeroext %6, ptr noundef %8, i64 noundef %spec.select)
  %.not57 = icmp eq i32 %64, 0
  br i1 %.not57, label %75, label %65

65:                                               ; preds = %63
  %66 = call i32 @EVP_DigestUpdate(ptr noundef nonnull %21, ptr noundef %0, i64 noundef 32) #9
  %.not58 = icmp eq i32 %66, 0
  br i1 %.not58, label %75, label %67

67:                                               ; preds = %65
  %68 = call i32 @EVP_DigestUpdate(ptr noundef nonnull %21, ptr noundef %3, i64 noundef 32) #9
  %.not59 = icmp eq i32 %68, 0
  br i1 %.not59, label %75, label %69

69:                                               ; preds = %67
  %70 = call i32 @EVP_DigestUpdate(ptr noundef nonnull %21, ptr noundef %1, i64 noundef %2) #9
  %.not60 = icmp eq i32 %70, 0
  br i1 %.not60, label %75, label %71

71:                                               ; preds = %69
  %72 = call i32 @EVP_DigestFinal_ex(ptr noundef nonnull %21, ptr noundef nonnull %18, ptr noundef nonnull %19) #9
  %.not61 = icmp eq i32 %72, 0
  br i1 %.not61, label %75, label %73

73:                                               ; preds = %71
  call fastcc void @x25519_sc_reduce(ptr noundef %18)
  %74 = getelementptr inbounds nuw i8, ptr %0, i64 32
  call fastcc void @sc_muladd(ptr noundef nonnull %74, ptr noundef %18, ptr noundef %15, ptr noundef %16)
  br label %75

75:                                               ; preds = %hash_init_with_dom.exit.thread, %63, %65, %67, %69, %71, %hash_init_with_dom.exit, %56, %59, %61, %31, %33, %35, %28, %25, %12, %73
  %.0 = phi i32 [ 0, %12 ], [ 0, %25 ], [ 0, %28 ], [ 1, %73 ], [ 0, %71 ], [ 0, %69 ], [ 0, %67 ], [ 0, %65 ], [ 0, %63 ], [ 0, %61 ], [ 0, %59 ], [ 0, %56 ], [ 0, %hash_init_with_dom.exit ], [ 0, %35 ], [ 0, %33 ], [ 0, %31 ], [ 0, %hash_init_with_dom.exit.thread ]
  call void @OPENSSL_cleanse(ptr noundef nonnull %16, i64 noundef 64) #9
  call void @OPENSSL_cleanse(ptr noundef nonnull %15, i64 noundef 64) #9
  call void @EVP_MD_free(ptr noundef %20) #9
  call void @EVP_MD_CTX_free(ptr noundef %21) #9
  call void @llvm.lifetime.end.p0(i64 4, ptr nonnull %19) #9
  call void @llvm.lifetime.end.p0(i64 64, ptr nonnull %18) #9
  call void @llvm.lifetime.end.p0(i64 160, ptr nonnull %17) #9
  call void @llvm.lifetime.end.p0(i64 64, ptr nonnull %16) #9
  call void @llvm.lifetime.end.p0(i64 64, ptr nonnull %15) #9
  ret i32 %.0
}